; Function Attrs: nounwind uwtable
define internal noundef i32 @php_userstreamop_closedir(ptr nocapture noundef readonly %0, i32 %1) #0 {
  %3 = alloca %struct._zval_struct, align 8
  %4 = alloca %struct._zval_struct, align 8
  %5 = getelementptr inbounds i8, ptr %0, i64 8
  %6 = load ptr, ptr %5, align 8
  %7 = tail call noalias ptr @_emalloc_40() #11
  store i32 1, ptr %7, align 4
  %8 = getelementptr inbounds i8, ptr %7, i64 4
  store i32 22, ptr %8, align 4
  %9 = getelementptr inbounds i8, ptr %7, i64 8
  store i64 0, ptr %9, align 8
  %10 = getelementptr inbounds i8, ptr %7, i64 16
  store i64 12, ptr %10, align 8
  %11 = getelementptr inbounds i8, ptr %7, i64 24
  tail call void @llvm.memcpy.p0.p0.i64(ptr noundef nonnull align 8 dereferenceable(12) %11, ptr noundef nonnull align 1 dereferenceable(12) @.str.96, i64 12, i1 false)
  %12 = getelementptr inbounds i8, ptr %7, i64 36
  store i8 0, ptr %12, align 1
  store ptr %7, ptr %3, align 8
  %13 = getelementptr inbounds i8, ptr %3, i64 8
  store i32 262, ptr %13, align 8
  %14 = getelementptr inbounds i8, ptr %6, i64 8
  %.val = load ptr, ptr %14, align 8
  %15 = call i32 @zend_call_method_if_exists(ptr noundef %.val, ptr noundef nonnull %7, ptr noundef nonnull %4, i32 noundef 0, ptr noundef null) #11
  call void @zval_ptr_dtor(ptr noundef nonnull %4) #11
  call void @zval_ptr_dtor(ptr noundef nonnull %3) #11
  call void @zval_ptr_dtor(ptr noundef nonnull %14) #11
  %16 = getelementptr inbounds i8, ptr %6, i64 16
  store i32 0, ptr %16, align 8
  call void @_efree(ptr noundef %6) #11
  ret i32 0
}